target datalayout = "e-m:e-p270:32:32-p271:32:32-p272:64:64-i64:64-i128:128-f80:128-n8:16:32:64-S128"
target triple = "x86_64-pc-linux-gnu"

%struct.vorbis_context_s = type { ptr, %struct.GetBitContext, %struct.VorbisDSPContext, ptr, [2 x ptr], [2 x ptr], i8, i32, i8, i32, i32, i32, i32, [2 x i32], [2 x ptr], i16, ptr, i8, ptr, i8, ptr, i8, ptr, i8, ptr, i8, i8, ptr, ptr }
%struct.GetBitContext = type { ptr, ptr, i32, i32, i32 }
%struct.VorbisDSPContext = type { ptr }

@.str.13 = private unnamed_addr constant [61 x i8] c" Vorbis setup header packet corrupt (no vorbis signature). \0A\00", align 1
@.str.14 = private unnamed_addr constant [51 x i8] c" Vorbis setup header packet corrupt (codebooks). \0A\00", align 1
@.str.15 = private unnamed_addr constant [64 x i8] c" Vorbis setup header packet corrupt (time domain transforms). \0A\00", align 1
@.str.16 = private unnamed_addr constant [48 x i8] c" Vorbis setup header packet corrupt (floors). \0A\00", align 1
@.str.17 = private unnamed_addr constant [50 x i8] c" Vorbis setup header packet corrupt (residues). \0A\00", align 1
@.str.18 = private unnamed_addr constant [50 x i8] c" Vorbis setup header packet corrupt (mappings). \0A\00", align 1
@.str.19 = private unnamed_addr constant [47 x i8] c" Vorbis setup header packet corrupt (modes). \0A\00", align 1
@.str.20 = private unnamed_addr constant [54 x i8] c" Vorbis setup header packet corrupt (framing flag). \0A\00", align 1

; Function Attrs: inlinehint nounwind willreturn memory(none) uwtable
define internal i32 @zero_extend(i32 noundef %0, i32 noundef %1) #5 {
  %3 = alloca i32, align 4
  %4 = alloca i32, align 4
  store i32 %0, ptr %3, align 4, !tbaa !34
  store i32 %1, ptr %4, align 4, !tbaa !34
  %5 = load i32, ptr %3, align 4, !tbaa !34
  %6 = load i32, ptr %4, align 4, !tbaa !34
  %7 = zext i32 %6 to i64
  %8 = sub i64 32, %7
  %9 = trunc i64 %8 to i32
  %10 = shl i32 %5, %9
  %11 = load i32, ptr %4, align 4, !tbaa !34
  %12 = zext i32 %11 to i64
  %13 = sub i64 32, %12
  %14 = trunc i64 %13 to i32
  %15 = lshr i32 %10, %14
  ret i32 %15
}

; Function Attrs: inlinehint nounwind uwtable
define internal i32 @get_bits1(ptr noundef %0) #4 {
  %2 = alloca ptr, align 8
  %3 = alloca i32, align 4
  %4 = alloca i8, align 1
  store ptr %0, ptr %2, align 8, !tbaa !35
  call void @llvm.lifetime.start.p0(i64 4, ptr %3) #13
  %5 = load ptr, ptr %2, align 8, !tbaa !35
  %6 = getelementptr inbounds nuw %struct.GetBitContext, ptr %5, i32 0, i32 2
  %7 = load i32, ptr %6, align 8, !tbaa !89
  store i32 %7, ptr %3, align 4, !tbaa !34
  call void @llvm.lifetime.start.p0(i64 1, ptr %4) #13
  %8 = load ptr, ptr %2, align 8, !tbaa !35
  %9 = getelementptr inbounds nuw %struct.GetBitContext, ptr %8, i32 0, i32 0
  %10 = load ptr, ptr %9, align 8, !tbaa !85
  %11 = load i32, ptr %3, align 4, !tbaa !34
  %12 = lshr i32 %11, 3
  %13 = zext i32 %12 to i64
  %14 = getelementptr inbounds nuw i8, ptr %10, i64 %13
  %15 = load i8, ptr %14, align 1, !tbaa !63
  store i8 %15, ptr %4, align 1, !tbaa !63
  %16 = load i32, ptr %3, align 4, !tbaa !34
  %17 = and i32 %16, 7
  %18 = load i8, ptr %4, align 1, !tbaa !63
  %19 = zext i8 %18 to i32
  %20 = ashr i32 %19, %17
  %21 = trunc i32 %20 to i8
  store i8 %21, ptr %4, align 1, !tbaa !63
  %22 = load i8, ptr %4, align 1, !tbaa !63
  %23 = zext i8 %22 to i32
  %24 = and i32 %23, 1
  %25 = trunc i32 %24 to i8
  store i8 %25, ptr %4, align 1, !tbaa !63
  %26 = load ptr, ptr %2, align 8, !tbaa !35
  %27 = getelementptr inbounds nuw %struct.GetBitContext, ptr %26, i32 0, i32 2
  %28 = load i32, ptr %27, align 8, !tbaa !89
  %29 = load ptr, ptr %2, align 8, !tbaa !35
  %30 = getelementptr inbounds nuw %struct.GetBitContext, ptr %29, i32 0, i32 4
  %31 = load i32, ptr %30, align 8, !tbaa !87
  %32 = icmp slt i32 %28, %31
  br i1 %32, label %33, label %36

33:                                               ; preds = %1
  %34 = load i32, ptr %3, align 4, !tbaa !34
  %35 = add i32 %34, 1
  store i32 %35, ptr %3, align 4, !tbaa !34
  br label %36

36:                                               ; preds = %33, %1
  %37 = load i32, ptr %3, align 4, !tbaa !34
  %38 = load ptr, ptr %2, align 8, !tbaa !35
  %39 = getelementptr inbounds nuw %struct.GetBitContext, ptr %38, i32 0, i32 2
  store i32 %37, ptr %39, align 8, !tbaa !89
  %40 = load i8, ptr %4, align 1, !tbaa !63
  %41 = zext i8 %40 to i32
  call void @llvm.lifetime.end.p0(i64 1, ptr %4) #13
  call void @llvm.lifetime.end.p0(i64 4, ptr %3) #13
  ret i32 %41
}

; Function Attrs: inlinehint nounwind uwtable
define internal i32 @get_bits(ptr noundef %0, i32 noundef %1) #4 {
  %3 = alloca ptr, align 8
  %4 = alloca i32, align 4
  %5 = alloca i32, align 4
  %6 = alloca i32, align 4
  %7 = alloca i32, align 4
  %8 = alloca i32, align 4
  store ptr %0, ptr %3, align 8, !tbaa !35
  store i32 %1, ptr %4, align 4, !tbaa !34
  call void @llvm.lifetime.start.p0(i64 4, ptr %5) #13
  call void @llvm.lifetime.start.p0(i64 4, ptr %6) #13
  %9 = load ptr, ptr %3, align 8, !tbaa !35
  %10 = getelementptr inbounds nuw %struct.GetBitContext, ptr %9, i32 0, i32 2
  %11 = load i32, ptr %10, align 8, !tbaa !89
  store i32 %11, ptr %6, align 4, !tbaa !34
  call void @llvm.lifetime.start.p0(i64 4, ptr %7) #13
  call void @llvm.lifetime.start.p0(i64 4, ptr %8) #13
  %12 = load ptr, ptr %3, align 8, !tbaa !35
  %13 = getelementptr inbounds nuw %struct.GetBitContext, ptr %12, i32 0, i32 4
  %14 = load i32, ptr %13, align 8, !tbaa !87
  store i32 %14, ptr %8, align 4, !tbaa !34
  %15 = load ptr, ptr %3, align 8, !tbaa !35
  %16 = getelementptr inbounds nuw %struct.GetBitContext, ptr %15, i32 0, i32 0
  %17 = load ptr, ptr %16, align 8, !tbaa !85
  %18 = load i32, ptr %6, align 4, !tbaa !34
  %19 = lshr i32 %18, 3
  %20 = zext i32 %19 to i64
  %21 = getelementptr inbounds nuw i8, ptr %17, i64 %20
  %22 = load i32, ptr %21, align 1, !tbaa !63
  %23 = load i32, ptr %6, align 4, !tbaa !34
  %24 = and i32 %23, 7
  %25 = lshr i32 %22, %24
  store i32 %25, ptr %7, align 4, !tbaa !34
  %26 = load i32, ptr %7, align 4, !tbaa !34
  %27 = load i32, ptr %4, align 4, !tbaa !34
  %28 = call i32 @zero_extend(i32 noundef %26, i32 noundef %27) #14
  store i32 %28, ptr %5, align 4, !tbaa !34
  %29 = load i32, ptr %8, align 4, !tbaa !34
  %30 = load i32, ptr %6, align 4, !tbaa !34
  %31 = load i32, ptr %4, align 4, !tbaa !34
  %32 = add i32 %30, %31
  %33 = icmp ugt i32 %29, %32
  br i1 %33, label %34, label %38

34:                                               ; preds = %2
  %35 = load i32, ptr %6, align 4, !tbaa !34
  %36 = load i32, ptr %4, align 4, !tbaa !34
  %37 = add i32 %35, %36
  br label %40

38:                                               ; preds = %2
  %39 = load i32, ptr %8, align 4, !tbaa !34
  br label %40

40:                                               ; preds = %38, %34
  %41 = phi i32 [ %37, %34 ], [ %39, %38 ]
  store i32 %41, ptr %6, align 4, !tbaa !34
  %42 = load i32, ptr %6, align 4, !tbaa !34
  %43 = load ptr, ptr %3, align 8, !tbaa !35
  %44 = getelementptr inbounds nuw %struct.GetBitContext, ptr %43, i32 0, i32 2
  store i32 %42, ptr %44, align 8, !tbaa !89
  %45 = load i32, ptr %5, align 4, !tbaa !34
  call void @llvm.lifetime.end.p0(i64 4, ptr %8) #13
  call void @llvm.lifetime.end.p0(i64 4, ptr %7) #13
  call void @llvm.lifetime.end.p0(i64 4, ptr %6) #13
  call void @llvm.lifetime.end.p0(i64 4, ptr %5) #13
  ret i32 %45
}

; Function Attrs: nounwind uwtable
define internal i32 @vorbis_parse_setup_hdr(ptr noundef %0) #1 {
  %2 = alloca i32, align 4
  %3 = alloca ptr, align 8
  %4 = alloca ptr, align 8
  %5 = alloca i32, align 4
  %6 = alloca i32, align 4
  store ptr %0, ptr %3, align 8, !tbaa !29
  call void @llvm.lifetime.start.p0(i64 8, ptr %4) #13
  %7 = load ptr, ptr %3, align 8, !tbaa !29
  %8 = getelementptr inbounds nuw %struct.vorbis_context_s, ptr %7, i32 0, i32 1
  store ptr %8, ptr %4, align 8, !tbaa !35
  call void @llvm.lifetime.start.p0(i64 4, ptr %5) #13
  %9 = load ptr, ptr %4, align 8, !tbaa !35
  %10 = call i32 @get_bits(ptr noundef %9, i32 noundef 8)
  %11 = icmp ne i32 %10, 118
  br i1 %11, label %32, label %12

12:                                               ; preds = %1
  %13 = load ptr, ptr %4, align 8, !tbaa !35
  %14 = call i32 @get_bits(ptr noundef %13, i32 noundef 8)
  %15 = icmp ne i32 %14, 111
  br i1 %15, label %32, label %16

16:                                               ; preds = %12
  %17 = load ptr, ptr %4, align 8, !tbaa !35
  %18 = call i32 @get_bits(ptr noundef %17, i32 noundef 8)
  %19 = icmp ne i32 %18, 114
  br i1 %19, label %32, label %20

20:                                               ; preds = %16
  %21 = load ptr, ptr %4, align 8, !tbaa !35
  %22 = call i32 @get_bits(ptr noundef %21, i32 noundef 8)
  %23 = icmp ne i32 %22, 98
  br i1 %23, label %32, label %24

24:                                               ; preds = %20
  %25 = load ptr, ptr %4, align 8, !tbaa !35
  %26 = call i32 @get_bits(ptr noundef %25, i32 noundef 8)
  %27 = icmp ne i32 %26, 105
  br i1 %27, label %32, label %28

28:                                               ; preds = %24
  %29 = load ptr, ptr %4, align 8, !tbaa !35
  %30 = call i32 @get_bits(ptr noundef %29, i32 noundef 8)
  %31 = icmp ne i32 %30, 115
  br i1 %31, label %32, label %36

32:                                               ; preds = %28, %24, %20, %16, %12, %1
  %33 = load ptr, ptr %3, align 8, !tbaa !29
  %34 = getelementptr inbounds nuw %struct.vorbis_context_s, ptr %33, i32 0, i32 0
  %35 = load ptr, ptr %34, align 8, !tbaa !37
  call void (ptr, i32, ptr, ...) @av_log(ptr noundef %35, i32 noundef 16, ptr noundef @.str.13)
  store i32 -1094995529, ptr %2, align 4
  store i32 1, ptr %6, align 4
  br label %99

36:                                               ; preds = %28
  %37 = load ptr, ptr %3, align 8, !tbaa !29
  %38 = call i32 @vorbis_parse_setup_hdr_codebooks(ptr noundef %37)
  store i32 %38, ptr %5, align 4, !tbaa !34
  %39 = icmp ne i32 %38, 0
  br i1 %39, label %40, label %45

40:                                               ; preds = %36
  %41 = load ptr, ptr %3, align 8, !tbaa !29
  %42 = getelementptr inbounds nuw %struct.vorbis_context_s, ptr %41, i32 0, i32 0
  %43 = load ptr, ptr %42, align 8, !tbaa !37
  call void (ptr, i32, ptr, ...) @av_log(ptr noundef %43, i32 noundef 16, ptr noundef @.str.14)
  %44 = load i32, ptr %5, align 4, !tbaa !34
  store i32 %44, ptr %2, align 4
  store i32 1, ptr %6, align 4
  br label %99

45:                                               ; preds = %36
  %46 = load ptr, ptr %3, align 8, !tbaa !29
  %47 = call i32 @vorbis_parse_setup_hdr_tdtransforms(ptr noundef %46)
  store i32 %47, ptr %5, align 4, !tbaa !34
  %48 = icmp ne i32 %47, 0
  br i1 %48, label %49, label %54

49:                                               ; preds = %45
  %50 = load ptr, ptr %3, align 8, !tbaa !29
  %51 = getelementptr inbounds nuw %struct.vorbis_context_s, ptr %50, i32 0, i32 0
  %52 = load ptr, ptr %51, align 8, !tbaa !37
  call void (ptr, i32, ptr, ...) @av_log(ptr noundef %52, i32 noundef 16, ptr noundef @.str.15)
  %53 = load i32, ptr %5, align 4, !tbaa !34
  store i32 %53, ptr %2, align 4
  store i32 1, ptr %6, align 4
  br label %99

54:                                               ; preds = %45
  %55 = load ptr, ptr %3, align 8, !tbaa !29
  %56 = call i32 @vorbis_parse_setup_hdr_floors(ptr noundef %55)
  store i32 %56, ptr %5, align 4, !tbaa !34
  %57 = icmp ne i32 %56, 0
  br i1 %57, label %58, label %63

58:                                               ; preds = %54
  %59 = load ptr, ptr %3, align 8, !tbaa !29
  %60 = getelementptr inbounds nuw %struct.vorbis_context_s, ptr %59, i32 0, i32 0
  %61 = load ptr, ptr %60, align 8, !tbaa !37
  call void (ptr, i32, ptr, ...) @av_log(ptr noundef %61, i32 noundef 16, ptr noundef @.str.16)
  %62 = load i32, ptr %5, align 4, !tbaa !34
  store i32 %62, ptr %2, align 4
  store i32 1, ptr %6, align 4
  br label %99

63:                                               ; preds = %54
  %64 = load ptr, ptr %3, align 8, !tbaa !29
  %65 = call i32 @vorbis_parse_setup_hdr_residues(ptr noundef %64)
  store i32 %65, ptr %5, align 4, !tbaa !34
  %66 = icmp ne i32 %65, 0
  br i1 %66, label %67, label %72

67:                                               ; preds = %63
  %68 = load ptr, ptr %3, align 8, !tbaa !29
  %69 = getelementptr inbounds nuw %struct.vorbis_context_s, ptr %68, i32 0, i32 0
  %70 = load ptr, ptr %69, align 8, !tbaa !37
  call void (ptr, i32, ptr, ...) @av_log(ptr noundef %70, i32 noundef 16, ptr noundef @.str.17)
  %71 = load i32, ptr %5, align 4, !tbaa !34
  store i32 %71, ptr %2, align 4
  store i32 1, ptr %6, align 4
  br label %99

72:                                               ; preds = %63
  %73 = load ptr, ptr %3, align 8, !tbaa !29
  %74 = call i32 @vorbis_parse_setup_hdr_mappings(ptr noundef %73)
  store i32 %74, ptr %5, align 4, !tbaa !34
  %75 = icmp ne i32 %74, 0
  br i1 %75, label %76, label %81

76:                                               ; preds = %72
  %77 = load ptr, ptr %3, align 8, !tbaa !29
  %78 = getelementptr inbounds nuw %struct.vorbis_context_s, ptr %77, i32 0, i32 0
  %79 = load ptr, ptr %78, align 8, !tbaa !37
  call void (ptr, i32, ptr, ...) @av_log(ptr noundef %79, i32 noundef 16, ptr noundef @.str.18)
  %80 = load i32, ptr %5, align 4, !tbaa !34
  store i32 %80, ptr %2, align 4
  store i32 1, ptr %6, align 4
  br label %99

81:                                               ; preds = %72
  %82 = load ptr, ptr %3, align 8, !tbaa !29
  %83 = call i32 @vorbis_parse_setup_hdr_modes(ptr noundef %82)
  store i32 %83, ptr %5, align 4, !tbaa !34
  %84 = icmp ne i32 %83, 0
  br i1 %84, label %85, label %90

85:                                               ; preds = %81
  %86 = load ptr, ptr %3, align 8, !tbaa !29
  %87 = getelementptr inbounds nuw %struct.vorbis_context_s, ptr %86, i32 0, i32 0
  %88 = load ptr, ptr %87, align 8, !tbaa !37
  call void (ptr, i32, ptr, ...) @av_log(ptr noundef %88, i32 noundef 16, ptr noundef @.str.19)
  %89 = load i32, ptr %5, align 4, !tbaa !34
  store i32 %89, ptr %2, align 4
  store i32 1, ptr %6, align 4
  br label %99

90:                                               ; preds = %81
  %91 = load ptr, ptr %4, align 8, !tbaa !35
  %92 = call i32 @get_bits1(ptr noundef %91)
  %93 = icmp ne i32 %92, 0
  br i1 %93, label %98, label %94

94:                                               ; preds = %90
  %95 = load ptr, ptr %3, align 8, !tbaa !29
  %96 = getelementptr inbounds nuw %struct.vorbis_context_s, ptr %95, i32 0, i32 0
  %97 = load ptr, ptr %96, align 8, !tbaa !37
  call void (ptr, i32, ptr, ...) @av_log(ptr noundef %97, i32 noundef 16, ptr noundef @.str.20)
  store i32 -1094995529, ptr %2, align 4
  store i32 1, ptr %6, align 4
  br label %99

98:                                               ; preds = %90
  store i32 0, ptr %2, align 4
  store i32 1, ptr %6, align 4
  br label %99

99:                                               ; preds = %98, %94, %85, %76, %67, %58, %49, %40, %32
  call void @llvm.lifetime.end.p0(i64 4, ptr %5) #13
  call void @llvm.lifetime.end.p0(i64 8, ptr %4) #13
  %100 = load i32, ptr %2, align 4
  ret i32 %100
}