; Function Attrs: nounwind uwtable
define internal fastcc i32 @vorbis_parse_setup_hdr(ptr noundef captures(none) %0) unnamed_addr #1 {
  %2 = getelementptr inbounds nuw i8, ptr %0, i64 8
  %3 = getelementptr inbounds nuw i8, ptr %0, i64 24
  %4 = load i32, ptr %3, align 8, !tbaa !49
  %5 = getelementptr inbounds nuw i8, ptr %0, i64 32
  %6 = load i32, ptr %5, align 8, !tbaa !47
  %7 = load ptr, ptr %2, align 8, !tbaa !45
  %8 = lshr i32 %4, 3
  %9 = zext nneg i32 %8 to i64
  %10 = getelementptr inbounds nuw i8, ptr %7, i64 %9
  %11 = load i32, ptr %10, align 1, !tbaa !50
  %12 = and i32 %4, 7
  %13 = lshr i32 %11, %12
  %14 = and i32 %13, 255
  %15 = add i32 %4, 8
  %16 = tail call i32 @llvm.umin.i32(i32 %6, i32 %15)
  store i32 %16, ptr %3, align 8, !tbaa !49
  %.not = icmp eq i32 %14, 118
  br i1 %.not, label %17, label %.sink.split

17:                                               ; preds = %1
  %18 = lshr i32 %16, 3
  %19 = zext nneg i32 %18 to i64
  %20 = getelementptr inbounds nuw i8, ptr %7, i64 %19
  %21 = load i32, ptr %20, align 1, !tbaa !50
  %22 = and i32 %16, 7
  %23 = lshr i32 %21, %22
  %24 = and i32 %23, 255
  %25 = add i32 %16, 8
  %26 = tail call i32 @llvm.umin.i32(i32 %6, i32 %25)
  store i32 %26, ptr %3, align 8, !tbaa !49
  %.not34 = icmp eq i32 %24, 111
  br i1 %.not34, label %27, label %.sink.split

27:                                               ; preds = %17
  %28 = lshr i32 %26, 3
  %29 = zext nneg i32 %28 to i64
  %30 = getelementptr inbounds nuw i8, ptr %7, i64 %29
  %31 = load i32, ptr %30, align 1, !tbaa !50
  %32 = and i32 %26, 7
  %33 = lshr i32 %31, %32
  %34 = and i32 %33, 255
  %35 = add i32 %26, 8
  %36 = tail call i32 @llvm.umin.i32(i32 %6, i32 %35)
  store i32 %36, ptr %3, align 8, !tbaa !49
  %.not35 = icmp eq i32 %34, 114
  br i1 %.not35, label %37, label %.sink.split

37:                                               ; preds = %27
  %38 = lshr i32 %36, 3
  %39 = zext nneg i32 %38 to i64
  %40 = getelementptr inbounds nuw i8, ptr %7, i64 %39
  %41 = load i32, ptr %40, align 1, !tbaa !50
  %42 = and i32 %36, 7
  %43 = lshr i32 %41, %42
  %44 = and i32 %43, 255
  %45 = add i32 %36, 8
  %46 = tail call i32 @llvm.umin.i32(i32 %6, i32 %45)
  store i32 %46, ptr %3, align 8, !tbaa !49
  %.not36 = icmp eq i32 %44, 98
  br i1 %.not36, label %47, label %.sink.split

47:                                               ; preds = %37
  %48 = lshr i32 %46, 3
  %49 = zext nneg i32 %48 to i64
  %50 = getelementptr inbounds nuw i8, ptr %7, i64 %49
  %51 = load i32, ptr %50, align 1, !tbaa !50
  %52 = and i32 %46, 7
  %53 = lshr i32 %51, %52
  %54 = and i32 %53, 255
  %55 = add i32 %46, 8
  %56 = tail call i32 @llvm.umin.i32(i32 %6, i32 %55)
  store i32 %56, ptr %3, align 8, !tbaa !49
  %.not37 = icmp eq i32 %54, 105
  br i1 %.not37, label %57, label %.sink.split

57:                                               ; preds = %47
  %58 = lshr i32 %56, 3
  %59 = zext nneg i32 %58 to i64
  %60 = getelementptr inbounds nuw i8, ptr %7, i64 %59
  %61 = load i32, ptr %60, align 1, !tbaa !50
  %62 = and i32 %56, 7
  %63 = lshr i32 %61, %62
  %64 = and i32 %63, 255
  %65 = add i32 %56, 8
  %66 = tail call i32 @llvm.umin.i32(i32 %6, i32 %65)
  store i32 %66, ptr %3, align 8, !tbaa !49
  %.not38 = icmp eq i32 %64, 115
  br i1 %.not38, label %67, label %.sink.split

67:                                               ; preds = %57
  %68 = tail call fastcc i32 @vorbis_parse_setup_hdr_codebooks(ptr noundef nonnull %0)
  %.not39 = icmp eq i32 %68, 0
  br i1 %.not39, label %69, label %.sink.split

69:                                               ; preds = %67
  %70 = tail call fastcc i32 @vorbis_parse_setup_hdr_tdtransforms(ptr noundef nonnull %0)
  %.not40 = icmp eq i32 %70, 0
  br i1 %.not40, label %71, label %.sink.split

71:                                               ; preds = %69
  %72 = tail call fastcc i32 @vorbis_parse_setup_hdr_floors(ptr noundef nonnull %0)
  %.not41 = icmp eq i32 %72, 0
  br i1 %.not41, label %73, label %.sink.split

73:                                               ; preds = %71
  %74 = tail call fastcc i32 @vorbis_parse_setup_hdr_residues(ptr noundef nonnull %0)
  %.not42 = icmp eq i32 %74, 0
  br i1 %.not42, label %75, label %.sink.split

75:                                               ; preds = %73
  %76 = tail call fastcc i32 @vorbis_parse_setup_hdr_mappings(ptr noundef nonnull %0)
  %.not43 = icmp eq i32 %76, 0
  br i1 %.not43, label %77, label %.sink.split

77:                                               ; preds = %75
  %78 = tail call fastcc i32 @vorbis_parse_setup_hdr_modes(ptr noundef nonnull %0)
  %.not44 = icmp eq i32 %78, 0
  br i1 %.not44, label %79, label %.sink.split

79:                                               ; preds = %77
  %80 = load i32, ptr %3, align 8, !tbaa !49
  %81 = load ptr, ptr %2, align 8, !tbaa !45
  %82 = lshr i32 %80, 3
  %83 = zext nneg i32 %82 to i64
  %84 = getelementptr inbounds nuw i8, ptr %81, i64 %83
  %85 = load i8, ptr %84, align 1, !tbaa !50
  %86 = load i32, ptr %5, align 8, !tbaa !47
  %87 = icmp slt i32 %80, %86
  %88 = zext i1 %87 to i32
  %spec.select.i = add i32 %80, %88
  %89 = zext i8 %85 to i32
  %90 = and i32 %80, 7
  store i32 %spec.select.i, ptr %3, align 8, !tbaa !49
  %91 = shl nuw nsw i32 1, %90
  %92 = and i32 %91, %89
  %.not45 = icmp eq i32 %92, 0
  br i1 %.not45, label %.sink.split, label %94

.sink.split:                                      ; preds = %79, %77, %75, %73, %71, %69, %67, %1, %17, %27, %37, %47, %57
  %.str.20.sink = phi ptr [ @.str.13, %57 ], [ @.str.13, %47 ], [ @.str.13, %37 ], [ @.str.13, %27 ], [ @.str.13, %17 ], [ @.str.13, %1 ], [ @.str.14, %67 ], [ @.str.15, %69 ], [ @.str.16, %71 ], [ @.str.17, %73 ], [ @.str.18, %75 ], [ @.str.19, %77 ], [ @.str.20, %79 ]
  %.0.ph = phi i32 [ -1094995529, %57 ], [ -1094995529, %47 ], [ -1094995529, %37 ], [ -1094995529, %27 ], [ -1094995529, %17 ], [ -1094995529, %1 ], [ %68, %67 ], [ %70, %69 ], [ %72, %71 ], [ %74, %73 ], [ %76, %75 ], [ %78, %77 ], [ -1094995529, %79 ]
  %93 = load ptr, ptr %0, align 8, !tbaa !29
  tail call void (ptr, i32, ptr, ...) @av_log(ptr noundef %93, i32 noundef 16, ptr noundef nonnull %.str.20.sink) #11
  br label %94

94:                                               ; preds = %.sink.split, %79
  %.0 = phi i32 [ 0, %79 ], [ %.0.ph, %.sink.split ]
  ret i32 %.0
}